(lp0
(lp1
(lp2
(lp3
F0.07795238494873047
aa(lp4
F0.058182716369628906
aa(lp5
F0.0664510726928711
aF0.09775066375732422
aF0.06271076202392578
aF0.0779714584350586
aF0.06480026245117188
aF0.1252450942993164
aF0.06303024291992188
aF0.11284160614013672
aF0.06640911102294922
aF0.1894845962524414
aF0.06284618377685547
aF0.05266284942626953
aF0.06536865234375
aF0.07354259490966797
aF0.060278892517089844
aF0.10441303253173828
aa(lp6
F0.04967784881591797
aF0.06396961212158203
aF0.051644325256347656
aF0.03116893768310547
aa(lp7
F0.054442405700683594
aF0.0709848403930664
aF0.07274532318115234
aF0.0631723403930664
aF0.07359695434570312
aF0.059111595153808594
aF0.062468528747558594
aF0.1094064712524414
aa(lp8
F0.1708517074584961
aF0.6254415512084961
aaa(lp9
(lp10
F1.1160707473754883
aa(lp11
F1.6894712448120117
aa(lp12
F0.43743419647216797
aF0.12012195587158203
aF0.4670705795288086
aF0.1448831558227539
aF0.43763256072998047
aF0.14557170867919922
aF0.4058218002319336
aF0.11751651763916016
aF0.4339714050292969
aF0.12677860260009766
aF0.3980989456176758
aF0.18750476837158203
aF0.39510631561279297
aF0.18811511993408203
aF0.38276195526123047
aF0.25440311431884766
aa(lp13
F1.9999990463256836
aaa(lp14
(lp15
F0.18326854705810547
aF0.18688488006591797
aa(lp16
F0.20865917205810547
aF0.1085195541381836
aF0.19623851776123047
aF0.1161794662475586
aF0.20641803741455078
aF0.2500162124633789
aF0.19648265838623047
aF0.13841915130615234
aa(lp17
F0.046866416931152344
aF0.1093912124633789
aF0.1044931411743164
aF0.09905338287353516
aa(lp18
F0.21971416473388672
aa(lp19
F0.08327960968017578
aF0.12549877166748047
aF0.082916259765625
aF0.04101276397705078
aF0.07808208465576172
aF0.09310626983642578
aF0.08007335662841797
aF0.1720438003540039
aa(lp20
F0.1175069808959961
aF0.11615657806396484
aaa(lp21
(lp22
F1.763625144958496
aF0.18720340728759766
aa(lp23
F0.28974437713623047
aF0.23311996459960938
aaa(lp24
(lp25
F1.8619508743286133
aa(lp26
F0.072265625
aa(lp27
F0.4412374496459961
aaa(lp28
(lp29
F0.18757152557373047
aaa(lp30
(lp31
F0.3046884536743164
aa(lp32
F0.4842405319213867
aa(lp33
F0.1357431411743164
aa(lp34
F1.9999990463256836
aaa(lp35
(lp36
F0.08200550079345703
aaa(lp37
(lp38
F0.004952430725097656
aa(lp39
F0.015376091003417969
aa(lp40
F0.22266101837158203
aa(lp41
F0.0036706924438476562
aa(lp42
F0.005444526672363281
aa(lp43
F0.0025339126586914062
aaa(lp44
(lp45
F1.9999990463256836
aa(lp46
F1.9999990463256836
aa(lp47
F1.9999990463256836
aa(lp48
F1.9999990463256836
aaa(lp49
(lp50
F0.46872615814208984
aaa(lp51
(lp52
F0.8366003036499023
aa(lp53
F1.9999990463256836
aaa(lp54
(lp55
F0.007933616638183594
aa(lp56
F0.007433891296386719
aF0.0921621322631836
aa(lp57
F0.10130977630615234
aaa(lp58
(lp59
F0.17075061798095703
aa(lp60
F0.04888629913330078
aa(lp61
F0.04736042022705078
aa(lp62
F0.024039268493652344
aa(lp63
F0.02054882049560547
aa(lp64
F0.02588176727294922
aaa(lp65
(lp66
F0.15404033660888672
aa(lp67
F1.6282501220703125
aa(lp68
F1.2499990463256836
aaa(lp69
(lp70
F1.7949190139770508
aF1.9999990463256836
aF0.7499971389770508
aF1.9999990463256836
aa(lp71
F1.9999990463256836
aa(lp72
F1.9999990463256836
aa(lp73
F1.8652334213256836
aF1.9999990463256836
aa(lp74
F0.2487649917602539
aaaa(lp75
(lp76
(lp77
(lp78
S'offm_cah'
p79
aS'offmt_cah'
p80
aa(lp81
S'offh_cah'
p82
aS'offht_cah'
p83
aaaa(lp84
(lp85
(lp86
g79
ag83
aa(lp87
g82
ag83
aaaa(lp88
(lp89
(lp90
g79
ag80
aa(lp91
S'slom_cah'
p92
aS'slomt_cah'
p93
aa(lp94
g82
ag83
aa(lp95
S'sloh_cah'
p96
aS'sloht_cah'
p97
aaag89
ag89
ag89
ag89
ag89
ag89
ag89
ag89
ag89
ag89
ag89
ag89
ag89
ag89
ag89
aa(lp98
(lp99
(lp100
g79
ag80
aa(lp101
g92
ag93
aaag99
ag99
ag99
aa(lp102
(lp103
(lp104
g79
ag80
aa(lp105
g92
ag93
aa(lp106
g82
ag83
aaag103
ag103
ag103
ag103
ag103
ag103
ag103
aa(lp107
(lp108
(lp109
g79
ag80
aa(lp110
g82
ag83
aa(lp111
g96
ag97
aaag108
aa(lp112
(lp113
(lp114
g82
ag83
aa(lp115
g96
ag97
aaaa(lp116
(lp117
S'tauhmax_cah'
p118
aaa(lp119
(lp120
(lp121
g79
ag80
aa(lp122
g82
ag83
aaS'taummax_cah'
p123
ag118
aag120
ag120
ag120
ag120
ag120
ag120
ag120
ag120
ag120
ag120
ag120
ag120
ag120
ag120
ag120
aa(lp124
(lp125
g123
aaa(lp126
(lp127
(lp128
g79
ag80
aa(lp129
g92
ag93
aa(lp130
g82
ag83
aa(lp131
g96
ag97
aag118
aag127
aa(lp132
(lp133
(lp134
g79
ag80
aa(lp135
g92
ag93
aa(lp136
g82
ag83
aa(lp137
g96
ag97
aag118
aag133
ag133
ag133
ag133
ag133
ag133
ag133
aa(lp138
(lp139
(lp140
g79
ag80
aa(lp141
g92
ag93
aag118
aag139
ag139
ag139
aa(lp142
(lp143
(lp144
g79
ag80
aa(lp145
g92
ag93
aa(lp146
g82
ag83
aa(lp147
g96
ag97
aaaa(lp148
(lp149
(lp150
g79
ag80
aa(lp151
g92
ag93
aa(lp152
g82
ag83
aa(lp153
g96
ag97
aag123
aag149
ag149
ag149
ag149
ag149
ag149
ag149
aa(lp154
(lp155
(lp156
g79
ag80
aa(lp157
g92
ag93
aag123
aag155
aa(lp158
(lp159
(lp160
S'offm_car'
p161
aa(lp162
S'offh_car'
p163
aaS'taummax_car'
p164
aS'tauhmax_car'
p165
aag159
aa(lp166
(lp167
g161
aS'slom_car'
p168
ag163
aS'sloh_car'
p169
ag164
ag165
aag167
aa(lp170
(lp171
g123
aaa(lp172
(lp173
(lp174
g79
ag80
aa(lp175
g92
ag93
aag123
aaa(lp176
(lp177
(lp178
g79
ag80
aa(lp179
g92
ag93
aa(lp180
g82
ag83
aa(lp181
g96
ag97
aaaa(lp182
(lp183
S'gamma_cad'
p184
aaa(lp185
(lp186
S'taur_cad'
p187
aaa(lp188
(lp189
g187
aS'cainf_cad'
p190
aaa(lp191
(lp192
g187
aaa(lp193
(lp194
g190
aaa(lp195
(lp196
g184
aaa(lp197
(lp198
(lp199
S'offm_na'
p200
aS'offmt_na'
p201
aa(lp202
S'offh_na'
p203
aS'offht_na'
p204
aa(lp205
S'slom_na'
p206
aS'slomt_na'
p207
aa(lp208
S'sloh_na'
p209
aS'sloht_na'
p210
aaaa(lp211
(lp212
(lp213
g200
ag201
aa(lp214
g203
ag204
aa(lp215
g206
ag207
aa(lp216
g209
ag210
aaaa(lp217
(lp218
(lp219
g200
ag201
aa(lp220
g203
ag204
aa(lp221
g206
ag207
aa(lp222
g209
ag210
aa(lp223
S'i1_na'
p224
aS'i2_na'
p225
aaaa(lp226
(lp227
(lp228
g200
ag201
aa(lp229
g203
ag204
aa(lp230
g206
ag207
aa(lp231
g209
ag210
aa(lp232
g224
ag225
aaaa(lp233
(lp234
(lp235
g200
ag201
aa(lp236
g206
ag207
aa(lp237
g224
ag225
aaaa(lp238
(lp239
(lp240
g200
ag201
aa(lp241
g203
ag204
aa(lp242
g206
ag207
aa(lp243
g209
ag210
aaaa(lp244
(lp245
(lp246
g200
ag201
aaaa(lp247
(lp248
(lp249
g200
ag201
aaaa(lp250
(lp251
(lp252
g200
ag201
aaaa(lp253
(lp254
(lp255
g200
ag201
aaaa(lp256
(lp257
(lp258
S'a0_kslow'
p259
aS'a1_kslow'
p260
aS'a2_kslow'
p261
aa(lp262
S'b0_kslow'
p263
aS'b11_kslow'
p264
aS'b2_kslow'
p265
aS'bb0_kslow'
p266
aS'bb1_kslow'
p267
aS'bb2_kslow'
p268
aaS'sloh_kslow'
p269
aaa(lp270
(lp271
S'offc_sk'
p272
aS'sloc_sk'
p273
aaa(lp274
(lp275
g273
aaa(lp276
(lp277
(lp278
S'off_iH'
p279
aS'offt1_iH'
p280
aS'offt2_iH'
p281
aa(lp282
S'slo_iH'
p283
aS'slot1_iH'
p284
aS'slot2_iH'
p285
aaaa(lp286
(lp287
(lp288
g279
ag280
ag281
aa(lp289
g283
ag284
ag285
aaag287
aa(lp290
(lp291
(lp292
g279
ag280
ag281
aa(lp293
S't0_iH'
p294
aS't1_iH'
p295
aaaa(lp296
(lp297
(lp298
S'offma_kslow'
p299
aS'offmb_kslow'
p300
aaS'offh_kslow'
p301
a(lp302
S'sloma_kslow'
p303
aS'slomb_kslow'
p304
aag269
a(lp305
g259
ag260
ag261
aa(lp306
g263
ag264
ag265
ag266
ag267
ag268
aaaa(lp307
(lp308
(lp309
g299
ag300
aag301
a(lp310
g303
ag304
aag269
a(lp311
g259
ag260
ag261
aa(lp312
g263
ag264
ag265
ag266
ag267
ag268
aaaa(lp313
(lp314
(lp315
g299
ag300
aag301
a(lp316
g303
ag304
aag269
a(lp317
g259
ag260
ag261
aa(lp318
g263
ag264
ag265
ag266
ag267
ag268
aaaa(lp319
(lp320
(lp321
g299
ag300
aag301
a(lp322
g303
ag304
aag269
a(lp323
g259
ag260
ag261
aa(lp324
g263
ag264
ag265
ag266
ag267
ag268
aaaa(lp325
(lp326
(lp327
g299
ag300
aag301
a(lp328
g303
ag304
aag269
a(lp329
g259
ag260
ag261
aa(lp330
g263
ag264
ag265
ag266
ag267
ag268
aaaa(lp331
(lp332
(lp333
g299
ag300
aag301
a(lp334
g303
ag304
aag269
a(lp335
g259
ag260
ag261
aa(lp336
g263
ag264
ag265
ag266
ag267
ag268
aaaa(lp337
(lp338
(lp339
g79
ag80
aa(lp340
g82
ag83
aag123
ag118
aaa(lp341
(lp342
(lp343
g79
ag80
aa(lp344
g82
ag83
aag123
ag118
aaa(lp345
(lp346
(lp347
g79
ag80
aa(lp348
g82
ag83
aag123
ag118
aaa(lp349
(lp350
S'offm_bk'
p351
a(lp352
S'ctm_bk'
p353
aS'ctmmax_bk'
p354
aaag350
ag350
ag350
aa(lp355
(lp356
g351
aaa(lp357
(lp358
g351
a(lp359
g353
ag354
aaaa(lp360
(lp361
g351
a(lp362
g353
ag354
aaag361
aa(lp363
(lp364
g351
aaaa(lp365
(lp366
(lp367
F-25.9
aF-27.0
aaa(lp368
(lp369
F-37.3
aF-30.0
aaa(lp370
(lp371
F-31.4
aF0.85
aF-28.5
aF0.72
aa(lp372
F7.0
aF0.85
aF-28.5
aF0.72
aa(lp373
F-31.4
aF1.45
aF-28.5
aF0.72
aa(lp374
F7.0
aF1.45
aF-28.5
aF0.72
aa(lp375
F-31.4
aF0.85
aF16.3
aF0.72
aa(lp376
F7.0
aF0.85
aF16.3
aF0.72
aa(lp377
F-31.4
aF1.45
aF16.3
aF0.72
aa(lp378
F7.0
aF1.45
aF16.3
aF0.72
aa(lp379
F-31.4
aF0.85
aF-28.5
aF1.38
aa(lp380
F7.0
aF0.85
aF-28.5
aF1.38
aa(lp381
F-31.4
aF1.45
aF-28.5
aF1.38
aa(lp382
F7.0
aF1.45
aF-28.5
aF1.38
aa(lp383
F-31.4
aF0.85
aF16.3
aF1.38
aa(lp384
F7.0
aF0.85
aF16.3
aF1.38
aa(lp385
F-31.4
aF1.45
aF16.3
aF1.38
aa(lp386
F7.0
aF1.45
aF16.3
aF1.38
aaa(lp387
(lp388
F-38.5
aF0.46
aa(lp389
F12.9
aF0.46
aa(lp390
F-38.5
aF1.56
aa(lp391
F12.9
aF1.56
aaa(lp392
(lp393
F-27.8
aF0.89
aF-19.1
aa(lp394
F8.7
aF0.89
aF-19.1
aa(lp395
F-27.8
aF1.14
aF-19.1
aa(lp396
F8.7
aF1.14
aF-19.1
aa(lp397
F-27.8
aF0.89
aF4.7
aa(lp398
F8.7
aF0.89
aF4.7
aa(lp399
F-27.8
aF1.14
aF4.7
aa(lp400
F8.7
aF1.14
aF4.7
aaa(lp401
(lp402
F-11.2
aF-3.1
aF1.24
aa(lp403
F1.0
aF-3.1
aF1.24
aaa(lp404
(lp405
F-5.2
aF0.69
aaa(lp406
(lp407
F1.7
aaa(lp408
(lp409
F-4.9
aF-5.1
aF0.6
aF0.6
aa(lp410
F4.9
aF-5.1
aF0.6
aF0.6
aa(lp411
F-4.9
aF5.1
aF0.6
aF0.6
aa(lp412
F4.9
aF5.1
aF0.6
aF0.6
aa(lp413
F-4.9
aF-5.1
aF1.68
aF0.6
aa(lp414
F4.9
aF-5.1
aF1.68
aF0.6
aa(lp415
F-4.9
aF5.1
aF1.68
aF0.6
aa(lp416
F4.9
aF5.1
aF1.68
aF0.6
aa(lp417
F-4.9
aF-5.1
aF0.6
aF1.66
aa(lp418
F4.9
aF-5.1
aF0.6
aF1.66
aa(lp419
F-4.9
aF5.1
aF0.6
aF1.66
aa(lp420
F4.9
aF5.1
aF0.6
aF1.66
aa(lp421
F-4.9
aF-5.1
aF1.68
aF1.66
aa(lp422
F4.9
aF-5.1
aF1.68
aF1.66
aa(lp423
F-4.9
aF5.1
aF1.68
aF1.66
aa(lp424
F4.9
aF5.1
aF1.68
aF1.66
aaa(lp425
(lp426
F1.26
aaa(lp427
(lp428
F-10.9
aF0.73
aF-3.0
aF0.81
aF1.25
aa(lp429
F-10.9
aF0.73
aF3.5
aF0.81
aF1.25
aaa(lp430
(lp431
F-10.6
aF0.8
aF-5.3
aF0.66
aF0.72
aa(lp432
F3.4
aF0.8
aF-5.3
aF0.66
aF0.72
aa(lp433
F-10.6
aF1.12
aF-5.3
aF0.66
aF0.72
aa(lp434
F3.4
aF1.12
aF-5.3
aF0.66
aF0.72
aa(lp435
F-10.6
aF0.8
aF1.2
aF0.66
aF0.72
aa(lp436
F3.4
aF0.8
aF1.2
aF0.66
aF0.72
aa(lp437
F-10.6
aF1.12
aF1.2
aF0.66
aF0.72
aa(lp438
F3.4
aF1.12
aF1.2
aF0.66
aF0.72
aaa(lp439
(lp440
F6.6
aF0.75
aF0.5
aa(lp441
F6.6
aF1.19
aF0.5
aa(lp442
F6.6
aF0.75
aF1.12
aa(lp443
F6.6
aF1.19
aF1.12
aaa(lp444
(lp445
F-9.8
aF0.8
aF-15.4
aF1.05
aaa(lp446
(lp447
F-24.2
aF0.7
aF-14.5
aF0.72
aF3.52
aa(lp448
F6.1
aF0.7
aF-14.5
aF0.72
aF3.52
aa(lp449
F-24.2
aF1.24
aF-14.5
aF0.72
aF3.52
aa(lp450
F6.1
aF1.24
aF-14.5
aF0.72
aF3.52
aa(lp451
F-24.2
aF0.7
aF-14.5
aF1.28
aF3.52
aa(lp452
F6.1
aF0.7
aF-14.5
aF1.28
aF3.52
aa(lp453
F-24.2
aF1.24
aF-14.5
aF1.28
aF3.52
aa(lp454
F6.1
aF1.24
aF-14.5
aF1.28
aF3.52
aaa(lp455
(lp456
F-17.8
aF0.81
aF0.77
aa(lp457
F-17.8
aF0.81
aF1.31
aaa(lp458
(lp459
F1.3
aF1.6
aF0.87
aF0.8
aa(lp460
F1.3
aF1.6
aF1.45
aF0.8
aaa(lp461
(lp462
F-4.3
aF1.14
aF-4.4
aF0.89
aF0.53
aF0.46
aa(lp463
F-4.3
aF1.14
aF-4.4
aF1.04
aF0.53
aF0.46
aaa(lp464
(lp465
F0.67
aaa(lp466
(lp467
F-30.02
aF0.62
aF0.49
aaa(lp468
(lp469
F-4.4
aF0.95
aF20.6
aF0.97
aaa(lp470
(lp471
F0.6
aaa(lp472
(lp473
F1.97
aaa(lp474
(lp475
F1.5
aF1.4
aaa(lp476
(lp477
F4.45
aaa(lp478
(lp479
F1.1
aaa(lp480
(lp481
F0.4
aaa(lp482
(lp483
F-0.3
aI5
aF1.15
aF1.23
aaa(lp484
(lp485
F2.8
aF9.6
aF0.984
aF1.042
aaa(lp486
(lp487
F-4.0
aF-5.8
aF0.92
aF1.13
aF1.47
aaa(lp488
(lp489
F-8.1
aF2.2
aF0.97
aF0.97
aF1.59
aaa(lp490
(lp491
F6.0
aF1.16
aF1.29
aaa(lp492
(lp493
F10.0
aF-0.6
aF1.15
aF1.14
aaa(lp494
(lp495
I0
aaa(lp496
(lp497
I0
aaa(lp498
(lp499
I0
aaa(lp500
(lp501
I0
aaa(lp502
(lp503
F2.0
aF2.5
aF0.5
aaa(lp504
(lp505
F0.86
aF1.24
aaa(lp506
(lp507
F0.84
aaa(lp508
(lp509
F-26.5
aF0.64
aaa(lp510
(lp511
F-25.9
aF0.6
aa(lp512
F17.7
aF0.6
aaa(lp513
(lp514
F3.9
aF0.88
aaa(lp515
(lp516
I5
aI3
aF1.11
aF0.86
aF0.5
aF0.53
aaa(lp517
(lp518
I1
aI-6
aF1.22
aF1.0
aF0.89
aF1.13
aaa(lp519
(lp520
I6
aI-8
aF1.33
aF1.0
aF0.5
aF0.87
aaa(lp521
(lp522
I-28
aI-27
aF1.11
aF0.71
aF1.13
aF2.27
aaa(lp523
(lp524
I14
aI-21
aF2.0
aF1.0
aF0.39
aF1.2
aaa(lp525
(lp526
I-13
aI-13
aF1.33
aF0.71
aF0.95
aF5.13
aaa(lp527
(lp528
F3.0
aF3.48
aF1.01
aF0.89
aaa(lp529
(lp530
F-1.11
aF5.14
aF0.6
aF1.48
aaa(lp531
(lp532
F-1.88
aF2.69
aF0.6
aF1.35
aaa(lp533
(lp534
F-13.8
aF0.51
aa(lp535
F57.0
aF0.51
aa(lp536
F-13.8
aF2.75
aa(lp537
F57.0
aF2.75
aaa(lp538
(lp539
F49.2
aaa(lp540
(lp541
I16
aF5.91
aaa(lp542
(lp543
I-5
aF0.13
aa(lp544
I15
aF0.13
aaa(lp545
(lp546
I-58
aaaa(lp547
(lp548
(lp549
(lp550
g78
a(lp551
F-25.9
aaa(lp552
g81
a(lp553
F-27.0
aaaa(lp554
(lp555
g86
a(lp556
F-37.3
aaa(lp557
g87
a(lp558
F-30.0
aaaa(lp559
(lp560
g90
a(lp561
F-31.4
aF7.0
aaa(lp562
g91
a(lp563
F0.85
aF1.45
aaa(lp564
g94
a(lp565
F-28.5
aF16.3
aaa(lp566
g95
a(lp567
F0.72
aF1.38
aaaa(lp568
(lp569
g100
a(lp570
F-38.5
aF12.9
aaa(lp571
g101
a(lp572
F0.46
aF1.56
aaaa(lp573
(lp574
g104
a(lp575
F-27.8
aF8.7
aaa(lp576
g105
a(lp577
F0.89
aF1.14
aaa(lp578
g106
a(lp579
F-19.1
aF4.7
aaaa(lp580
(lp581
g109
a(lp582
F-11.2
aF1.0
aaa(lp583
g110
a(lp584
F-3.1
aaa(lp585
g111
a(lp586
F1.24
aaaaa(lp587
(lp588
(lp589
g114
a(lp590
F-5.2
aaa(lp591
g115
a(lp592
F0.69
aaaa(lp593
(lp594
g118
a(lp595
F1.7
aaaa(lp596
(lp597
g121
a(lp598
F-4.9
aF4.9
aaa(lp599
g122
a(lp600
F-5.1
aF5.1
aaa(lp601
g123
a(lp602
F0.6
aF1.68
aaa(lp603
g118
a(lp604
F0.6
aF1.66
aaaa(lp605
(lp606
g123
a(lp607
F1.26
aaaaa(lp608
(lp609
(lp610
g128
a(lp611
F-10.9
aaa(lp612
g129
a(lp613
F0.73
aaa(lp614
g130
a(lp615
F-3.0
aF3.5
aaa(lp616
g131
a(lp617
F0.81
aaa(lp618
g118
a(lp619
F1.25
aaaa(lp620
(lp621
g134
a(lp622
F-10.6
aF3.4
aaa(lp623
g135
a(lp624
F0.8
aF1.12
aaa(lp625
g136
a(lp626
F-5.3
aF1.2
aaa(lp627
g137
a(lp628
F0.66
aaa(lp629
g118
a(lp630
F0.72
aaaa(lp631
(lp632
g140
a(lp633
F6.6
aaa(lp634
g141
a(lp635
F0.75
aF1.19
aaa(lp636
g118
a(lp637
F0.5
aF1.12
aaaa(lp638
(lp639
g144
a(lp640
F-9.8
aaa(lp641
g145
a(lp642
F0.8
aaa(lp643
g146
a(lp644
F-15.4
aaa(lp645
g147
a(lp646
F1.05
aaaa(lp647
(lp648
g150
a(lp649
F-24.2
aF6.1
aaa(lp650
g151
a(lp651
F0.7
aF1.24
aaa(lp652
g152
a(lp653
F-14.5
aaa(lp654
g153
a(lp655
F0.72
aF1.28
aaa(lp656
g123
a(lp657
F3.52
aaaa(lp658
(lp659
g156
a(lp660
F-17.8
aaa(lp661
g157
a(lp662
F0.81
aaa(lp663
g123
a(lp664
F0.77
aF1.31
aaaaa(lp665
(lp666
(lp667
g160
a(lp668
F1.3
aaa(lp669
g162
a(lp670
F1.6
aaa(lp671
g164
a(lp672
F0.87
aF1.45
aaa(lp673
g165
a(lp674
F0.8
aaaa(lp675
(lp676
g161
a(lp677
F-4.3
aaa(lp678
g168
a(lp679
F1.14
aaa(lp680
g163
a(lp681
F-4.4
aaa(lp682
g169
a(lp683
F0.89
aF1.04
aaa(lp684
g164
a(lp685
F0.53
aaa(lp686
g165
a(lp687
F0.46
aaaaa(lp688
(lp689
(lp690
g123
a(lp691
F0.67
aaaa(lp692
(lp693
g174
a(lp694
F-30.02
aaa(lp695
g175
a(lp696
F0.62
aaa(lp697
g123
a(lp698
F0.49
aaaa(lp699
(lp700
g178
a(lp701
F-4.4
aaa(lp702
g179
a(lp703
F0.95
aaa(lp704
g180
a(lp705
F20.6
aaa(lp706
g181
a(lp707
F0.97
aaaaa(lp708
(lp709
(lp710
g184
a(lp711
F0.6
aaaaa(lp712
(lp713
(lp714
g187
a(lp715
F1.97
aaaa(lp716
(lp717
g187
a(lp718
F1.5
aaa(lp719
g190
a(lp720
F1.4
aaaa(lp721
(lp722
g187
a(lp723
F4.45
aaaa(lp724
(lp725
g190
a(lp726
F1.1
aaaaa(lp727
(lp728
(lp729
g184
a(lp730
F0.4
aaaaa(lp731
(lp732
(lp733
g199
a(lp734
F-0.3
aaa(lp735
g202
a(lp736
I5
aaa(lp737
g205
a(lp738
F1.15
aaa(lp739
g208
a(lp740
F1.23
aaaa(lp741
(lp742
g213
a(lp743
F2.8
aaa(lp744
g214
a(lp745
F9.6
aaa(lp746
g215
a(lp747
F0.984
aaa(lp748
g216
a(lp749
F1.042
aaaa(lp750
(lp751
g219
a(lp752
F-4.0
aaa(lp753
g220
a(lp754
F-5.8
aaa(lp755
g221
a(lp756
F0.92
aaa(lp757
g222
a(lp758
F1.13
aaa(lp759
g223
a(lp760
F1.47
aaaa(lp761
(lp762
g228
a(lp763
F-8.1
aaa(lp764
g229
a(lp765
F2.2
aaa(lp766
g230
a(lp767
F0.97
aaa(lp768
g231
a(lp769
F0.97
aaa(lp770
g232
a(lp771
F1.59
aaaa(lp772
(lp773
g235
a(lp774
F6.0
aaa(lp775
g236
a(lp776
F1.16
aaa(lp777
g237
a(lp778
F1.29
aaaa(lp779
(lp780
g240
a(lp781
F10.0
aaa(lp782
g241
a(lp783
F-0.6
aaa(lp784
g242
a(lp785
F1.15
aaa(lp786
g243
a(lp787
F1.14
aaaaa(lp788
(lp789
(lp790
g246
a(lp791
I0
aaaa(lp792
(lp793
g249
a(lp794
I0
aaaa(lp795
(lp796
g252
a(lp797
I0
aaaa(lp798
(lp799
g255
a(lp800
I0
aaaaa(lp801
(lp802
(lp803
g258
a(lp804
F2.0
aaa(lp805
g262
a(lp806
F2.5
aaa(lp807
g269
a(lp808
F0.5
aaaaa(lp809
(lp810
(lp811
g272
a(lp812
F0.86
aaa(lp813
g273
a(lp814
F1.24
aaaa(lp815
(lp816
g273
a(lp817
F0.84
aaaaa(lp818
(lp819
(lp820
g278
a(lp821
F-26.5
aaa(lp822
g282
a(lp823
F0.64
aaaa(lp824
(lp825
g288
a(lp826
F-25.9
aF17.7
aaa(lp827
g289
a(lp828
F0.6
aaaa(lp829
(lp830
g292
a(lp831
F3.9
aaa(lp832
g293
a(lp833
F0.88
aaaaa(lp834
(lp835
(lp836
g298
a(lp837
I5
aaa(lp838
g301
a(lp839
I3
aaa(lp840
g302
a(lp841
F1.11
aaa(lp842
g269
a(lp843
F0.86
aaa(lp844
g305
a(lp845
F0.5
aaa(lp846
g306
a(lp847
F0.53
aaaa(lp848
(lp849
g309
a(lp850
I1
aaa(lp851
g301
a(lp852
I-6
aaa(lp853
g310
a(lp854
F1.22
aaa(lp855
g269
a(lp856
F1.0
aaa(lp857
g311
a(lp858
F0.89
aaa(lp859
g312
a(lp860
F1.13
aaaa(lp861
(lp862
g315
a(lp863
I6
aaa(lp864
g301
a(lp865
I-8
aaa(lp866
g316
a(lp867
F1.33
aaa(lp868
g269
a(lp869
F1.0
aaa(lp870
g317
a(lp871
F0.5
aaa(lp872
g318
a(lp873
F0.87
aaaa(lp874
(lp875
g321
a(lp876
I-28
aaa(lp877
g301
a(lp878
I-27
aaa(lp879
g322
a(lp880
F1.11
aaa(lp881
g269
a(lp882
F0.71
aaa(lp883
g323
a(lp884
F1.13
aaa(lp885
g324
a(lp886
F2.27
aaaa(lp887
(lp888
g327
a(lp889
I14
aaa(lp890
g301
a(lp891
I-21
aaa(lp892
g328
a(lp893
F2.0
aaa(lp894
g269
a(lp895
F1.0
aaa(lp896
g329
a(lp897
F0.39
aaa(lp898
g330
a(lp899
F1.2
aaaa(lp900
(lp901
g333
a(lp902
I-13
aaa(lp903
g301
a(lp904
I-13
aaa(lp905
g334
a(lp906
F1.33
aaa(lp907
g269
a(lp908
F0.71
aaa(lp909
g335
a(lp910
F0.95
aaa(lp911
g336
a(lp912
F5.13
aaaaa(lp913
(lp914
(lp915
g339
a(lp916
F3.0
aaa(lp917
g340
a(lp918
F3.48
aaa(lp919
g123
a(lp920
F1.01
aaa(lp921
g118
a(lp922
F0.89
aaaa(lp923
(lp924
g343
a(lp925
F-1.11
aaa(lp926
g344
a(lp927
F5.14
aaa(lp928
g123
a(lp929
F0.6
aaa(lp930
g118
a(lp931
F1.48
aaaa(lp932
(lp933
g347
a(lp934
F-1.88
aaa(lp935
g348
a(lp936
F2.69
aaa(lp937
g123
a(lp938
F0.6
aaa(lp939
g118
a(lp940
F1.35
aaaaa(lp941
(lp942
(lp943
g351
a(lp944
F-13.8
aF57.0
aaa(lp945
g352
a(lp946
F0.51
aF2.75
aaaa(lp947
(lp948
g351
a(lp949
F49.2
aaaa(lp950
(lp951
g351
a(lp952
I16
aaa(lp953
g359
a(lp954
F5.91
aaaa(lp955
(lp956
g351
a(lp957
I-5
aI15
aaa(lp958
g362
a(lp959
F0.13
aaaa(lp960
(lp961
g351
a(lp962
I-58
aaaaaa.