(lp0
(lp1
(lp2
(lp3
(lp4
F0.0660104751586914
aa(lp5
F0.04215717315673828
aa(lp6
F0.04261493682861328
aF0.10141658782958984
aF0.048989295959472656
aF0.07631969451904297
aF0.03058147430419922
aF0.6925745010375977
aF0.033652305603027344
aF0.3592519760131836
aF0.057921409606933594
aF0.058531761169433594
aF0.07140064239501953
aF0.04882526397705078
aF0.037703514099121094
aF0.1763906478881836
aF0.038140296936035156
aF0.1125497817993164
aa(lp7
F0.02820873260498047
aF0.12300395965576172
aF0.03516674041748047
aF0.06342601776123047
aa(lp8
F0.052351951599121094
aF0.07685184478759766
aF0.056916236877441406
aF0.0686044692993164
aF0.041749000549316406
aF0.1449594497680664
aF0.044226646423339844
aF0.11914348602294922
aa(lp9
F0.15720272064208984
aF0.2359018325805664
aaa(lp10
(lp11
F0.38054752349853516
aa(lp12
F1.9999990463256836
aa(lp13
F0.1936044692993164
aF0.2776193618774414
aF0.13081073760986328
aF1.1010618209838867
aF0.8140974044799805
aF0.1051645278930664
aF0.3732137680053711
aF0.1435842514038086
aF0.18937397003173828
aF0.3422861099243164
aF0.12197017669677734
aF1.686711311340332
aF0.7073202133178711
aF0.1125497817993164
aF0.3195810317993164
aF0.15713024139404297
aa(lp14
F1.9999990463256836
aaa(lp15
(lp16
F0.0825185775756836
aF0.07473278045654297
aa(lp17
F0.0801248550415039
aF1.9621381759643555
aF0.0937662124633789
aF0.9052286148071289
aF0.0723104476928711
aF0.38619518280029297
aF0.08269405364990234
aF1.116511344909668
aa(lp18
F0.19003582000732422
aF0.1226816177368164
aF0.2085123062133789
aF0.13032817840576172
aa(lp19
F0.18086719512939453
aa(lp20
F0.04488849639892578
aF0.31845569610595703
aF0.052765846252441406
aF0.15178394317626953
aF0.059081077575683594
aF0.10485553741455078
aF0.07396221160888672
aF0.07557201385498047
aa(lp21
F0.06494998931884766
aF0.06346797943115234
aaa(lp22
(lp23
F1.9999990463256836
aF1.9999990463256836
aa(lp24
F0.9677743911743164
aF1.9999990463256836
aaa(lp25
(lp26
F0.5656194686889648
aa(lp27
F0.03375720977783203
aa(lp28
F0.10845088958740234
aaa(lp29
(lp30
F0.17859172821044922
aaa(lp31
(lp32
F0.14923381805419922
aa(lp33
F0.13726520538330078
aa(lp34
F0.06737995147705078
aa(lp35
F1.0868558883666992
aaa(lp36
(lp37
F0.0995645523071289
aaa(lp38
(lp39
F0.049078941345214844
aa(lp40
F0.0626688003540039
aa(lp41
F0.27309513092041016
aa(lp42
F0.037331581115722656
aa(lp43
F0.12926959991455078
aa(lp44
F0.06197834014892578
aaa(lp45
(lp46
F1.9999990463256836
aa(lp47
F0.019499778747558594
aa(lp48
F0.03123188018798828
aa(lp49
F0.03818035125732422
aaa(lp50
(lp51
F1.9999990463256836
aaa(lp52
(lp53
F1.3162527084350586
aa(lp54
F0.42946720123291016
aaa(lp55
(lp56
F0.29638195037841797
aa(lp57
F0.2819528579711914
aF0.8071088790893555
aa(lp58
F1.2257013320922852
aaa(lp59
(lp60
F1.9999990463256836
aa(lp61
F1.9999990463256836
aa(lp62
F1.9999990463256836
aa(lp63
F1.9999990463256836
aa(lp64
F1.9999990463256836
aa(lp65
F1.9999990463256836
aaa(lp66
(lp67
F0.4367666244506836
aa(lp68
F0.21033573150634766
aa(lp69
F0.2080087661743164
aaaa(lp70
(lp71
(lp72
F0.06042194366455078
aa(lp73
F0.03860950469970703
aa(lp74
F0.039155006408691406
aF0.09331607818603516
aF0.045449256896972656
aF0.06824016571044922
aF0.028122901916503906
aF0.6562566757202148
aF0.031081199645996094
aF0.2998056411743164
aF0.052903175354003906
aF0.05358600616455078
aF0.06585979461669922
aF0.044035911560058594
aF0.03459644317626953
aF0.1651010513305664
aF0.03930377960205078
aF0.10258769989013672
aa(lp75
F0.025702476501464844
aF0.11822986602783203
aF0.032378196716308594
aF0.058295249938964844
aa(lp76
F0.04797649383544922
aF0.0702371597290039
aF0.052186012268066406
aF0.062064170837402344
aF0.03819751739501953
a(lp77
aF0.040719032287597656
aF0.1097879409790039
aa(lp78
F0.14424610137939453
aF0.21797657012939453
aaa(lp79
(lp80
F0.3888998031616211
aa(lp81
F1.9999990463256836
aa(lp82
F0.20377826690673828
aF0.2415628433227539
aF0.13697147369384766
aF0.6863679885864258
aF0.6640443801879883
aF0.0988931655883789
aF0.33470630645751953
aF0.13587474822998047
aF0.18232250213623047
aF0.29247188568115234
aF0.1276865005493164
aF0.9765634536743164
aF0.5876779556274414
aF0.10587024688720703
aF0.28765010833740234
aF0.1487588882446289
aa(lp83
F1.9999990463256836
aaa(lp84
(lp85
F0.07558917999267578
aF0.06823253631591797
aa(lp86
F0.07337284088134766
aF1.9999990463256836
aF0.0872201919555664
aF0.7865991592407227
aF0.06627368927001953
aF0.3828878402709961
aF0.07729053497314453
aF0.9971685409545898
aa(lp87
F0.18001842498779297
aF0.11301708221435547
aF0.19783878326416016
aF0.11992549896240234
aa(lp88
F0.16305828094482422
aa(lp89
F0.041077613830566406
aF0.30434513092041016
aF0.04851055145263672
aF0.13741779327392578
aF0.053933143615722656
aF0.09709644317626953
aF0.0682058334350586
aF0.06960391998291016
aa(lp90
F0.059304237365722656
aF0.05828380584716797
aaa(lp91
(lp92
F1.9999990463256836
aF1.9999990463256836
aa(lp93
F0.7265634536743164
aF1.0903444290161133
aaa(lp94
(lp95
F0.5890283584594727
aa(lp96
F0.03081035614013672
aa(lp97
F0.11156558990478516
aaa(lp98
(lp99
F0.1668844223022461
aaa(lp100
(lp101
F0.15346622467041016
aa(lp102
F0.14815616607666016
aa(lp103
F0.06982898712158203
aa(lp104
F1.1136770248413086
aaa(lp105
(lp106
F0.0930166244506836
aaa(lp107
(lp108
F0.051451683044433594
aa(lp109
F0.0662546157836914
aa(lp110
F0.10095882415771484
aa(lp111
F0.024291038513183594
aa(lp112
F0.1377267837524414
aa(lp113
F0.06394481658935547
aaa(lp114
(lp115
F1.9999990463256836
aa(lp116
F0.018210411071777344
aa(lp117
F0.02824687957763672
aa(lp118
F0.03076457977294922
aaa(lp119
(lp120
F1.9999990463256836
aaa(lp121
(lp122
F1.568711280822754
aa(lp123
F0.43468379974365234
aaa(lp124
(lp125
F0.22623538970947266
aa(lp126
F0.21613597869873047
aF0.9159402847290039
aa(lp127
F1.9999990463256836
aaa(lp128
(lp129
F1.9999990463256836
aa(lp130
F1.9999990463256836
aa(lp131
F1.9999990463256836
aa(lp132
F1.9999990463256836
aa(lp133
F1.9999990463256836
aa(lp134
F1.9999990463256836
aaa(lp135
(lp136
F0.4060811996459961
aa(lp137
F0.2165517807006836
aa(lp138
F0.2200479507446289
aaaaa(lp139
(lp140
(lp141
(lp142
S'offma_Ca_HVA'
p143
aS'offmb_Ca_HVA'
p144
aa(lp145
S'offha_Ca_HVA'
p146
aS'offhb_Ca_HVA'
p147
aaaa(lp148
(lp149
(lp150
g143
ag144
aa(lp151
g146
ag147
aaaa(lp152
(lp153
(lp154
g143
ag144
aa(lp155
S'sloma_Ca_HVA'
p156
aS'slomb_Ca_HVA'
p157
aa(lp158
g146
ag147
aa(lp159
S'sloha_Ca_HVA'
p160
aS'slohb_Ca_HVA'
p161
aaag153
ag153
ag153
ag153
ag153
ag153
ag153
ag153
ag153
ag153
ag153
ag153
ag153
ag153
ag153
aa(lp162
(lp163
(lp164
g143
ag144
aa(lp165
g156
ag157
aaag163
ag163
ag163
aa(lp166
(lp167
(lp168
g143
ag144
aa(lp169
g156
ag157
aa(lp170
g146
ag147
aaag167
ag167
ag167
ag167
ag167
ag167
ag167
aa(lp171
(lp172
(lp173
g143
ag144
aa(lp174
g146
ag147
aa(lp175
g160
ag161
aaag172
aa(lp176
(lp177
(lp178
g146
ag147
aa(lp179
g160
ag161
aaaa(lp180
(lp181
(lp182
S'tauha_Ca_HVA'
p183
aS'tauhb_Ca_HVA'
p184
aaaa(lp185
(lp186
(lp187
g143
ag144
aa(lp188
g146
ag147
aa(lp189
S'tauma_Ca_HVA'
p190
aS'taumb_Ca_HVA'
p191
aa(lp192
g183
ag184
aaag186
ag186
ag186
ag186
ag186
ag186
ag186
ag186
ag186
ag186
ag186
ag186
ag186
ag186
ag186
aa(lp193
(lp194
(lp195
g183
ag184
aaaa(lp196
(lp197
(lp198
g143
ag144
aa(lp199
g156
ag157
aa(lp200
g146
ag147
aa(lp201
g160
ag161
aa(lp202
g183
ag184
aaag197
aa(lp203
(lp204
(lp205
g143
ag144
aa(lp206
g156
ag157
aa(lp207
g146
ag147
aa(lp208
g160
ag161
aa(lp209
g183
ag184
aaag204
ag204
ag204
ag204
ag204
ag204
ag204
aa(lp210
(lp211
(lp212
g143
ag144
aa(lp213
g156
ag157
aa(lp214
g183
ag184
aaag211
ag211
ag211
aa(lp215
(lp216
(lp217
g143
ag144
aa(lp218
g156
ag157
aa(lp219
g146
ag147
aa(lp220
g160
ag161
aaaa(lp221
(lp222
(lp223
g143
ag144
aa(lp224
g156
ag157
aa(lp225
g146
ag147
aa(lp226
g160
ag161
aa(lp227
g183
ag184
aaag222
ag222
ag222
ag222
ag222
ag222
ag222
aa(lp228
(lp229
(lp230
g143
ag144
aa(lp231
g156
ag157
aa(lp232
g183
ag184
aaag229
aa(lp233
(lp234
S'offma_Ca_LVAst'
p235
aS'offha_Ca_LVAst'
p236
a(lp237
S'taummin_Ca_LVAst'
p238
aS'taumdiff_Ca_LVAst'
p239
aa(lp240
S'tauhmin_Ca_LVAst'
p241
aS'tauhdiff_Ca_LVAst'
p242
aaag234
aa(lp243
(lp244
g235
aS'sloma_Ca_LVAst'
p245
ag236
aS'sloha_Ca_LVAst'
p246
a(lp247
g238
ag239
aa(lp248
g241
ag242
aaag244
aa(lp249
(lp250
(lp251
g190
ag191
aaaa(lp252
(lp253
(lp254
g143
ag144
aa(lp255
g156
ag157
aa(lp256
g190
ag191
aaaa(lp257
(lp258
(lp259
g143
ag144
aa(lp260
g156
ag157
aa(lp261
g146
ag147
aa(lp262
g160
ag161
aaaa(lp263
(lp264
S'gamma_CaDynamics_E2'
p265
aaa(lp266
(lp267
S'decay_CaDynamics_E2'
p268
aaa(lp269
(lp270
g268
aS'minCai_CaDynamics_E2'
p271
aaa(lp272
(lp273
g268
aaa(lp274
(lp275
g271
aaa(lp276
(lp277
g265
aaa(lp278
(lp279
S'offm_NaTa_t'
p280
aS'offh_NaTa_t'
p281
aS'slom_NaTa_t'
p282
aS'sloh_NaTa_t'
p283
aaa(lp284
(lp285
g280
ag281
ag282
ag283
aaa(lp286
(lp287
g280
ag281
ag282
ag283
a(lp288
S'tauha_NaTa_t'
p289
aS'tauhb_NaTa_t'
p290
aaaa(lp291
(lp292
g280
ag281
ag282
ag283
a(lp293
g289
ag290
aaaa(lp294
(lp295
g280
ag282
a(lp296
g289
ag290
aaaa(lp297
(lp298
g280
ag281
ag282
ag283
aaa(lp299
(lp300
(lp301
S'offh_Nap_Et2'
p302
aS'offha_Nap_Et2'
p303
aS'offhb_Nap_Et2'
p304
aaaa(lp305
(lp306
(lp307
g302
ag303
ag304
aaS'sloh_Nap_Et2'
p308
ag280
ag281
ag283
aaa(lp309
(lp310
g280
ag281
aaa(lp311
(lp312
g280
ag281
aaa(lp313
(lp314
(lp315
S'taummin_K_Pst'
p316
aS'taumdiff1_K_Pst'
p317
aS'taumdiff2_K_Pst'
p318
aa(lp319
S'tauhmean_K_Pst'
p320
aS'tauhdiff1_K_Pst'
p321
aS'tauhdiff2_K_Pst'
p322
aaS'sloh_K_Pst'
p323
aaa(lp324
(lp325
S'offc_SK_E2'
p326
aS'sloc_SK_E2'
p327
aaa(lp328
(lp329
g327
aaa(lp330
(lp331
(lp332
S'offma_Ih'
p333
aS'offmb_Ih'
p334
aa(lp335
S'sloma_Ih'
p336
aS'slomb_Ih'
p337
aaaa(lp338
(lp339
(lp340
g333
ag334
aa(lp341
g336
ag337
aaag339
aa(lp342
(lp343
(lp344
g333
ag334
aa(lp345
S'tauma_Ih'
p346
aS'taumb_Ih'
p347
aaaa(lp348
(lp349
S'offm_K_Pst'
p350
aS'offh_K_Pst'
p351
aS'slom_K_Pst'
p352
ag323
a(lp353
g316
ag317
ag318
aa(lp354
g320
ag321
ag322
aaaa(lp355
(lp356
g350
ag351
ag352
ag323
a(lp357
g316
ag317
ag318
aa(lp358
g320
ag321
ag322
aaaa(lp359
(lp360
g350
ag351
ag352
ag323
a(lp361
g316
ag317
ag318
aa(lp362
g320
ag321
ag322
aaaa(lp363
(lp364
g350
ag351
ag352
ag323
a(lp365
g316
ag317
ag318
aa(lp366
g320
ag321
ag322
aaaa(lp367
(lp368
g350
ag351
ag352
ag323
a(lp369
g316
ag317
ag318
aa(lp370
g320
ag321
ag322
aaaa(lp371
(lp372
g350
ag351
ag352
ag323
a(lp373
g316
ag317
ag318
aa(lp374
g320
ag321
ag322
aaaa(lp375
(lp376
(lp377
g143
ag144
aa(lp378
g146
ag147
aa(lp379
g190
ag191
aa(lp380
g183
ag184
aaaa(lp381
(lp382
(lp383
g143
ag144
aa(lp384
g146
ag147
aa(lp385
g190
ag191
aa(lp386
g183
ag184
aaaa(lp387
(lp388
(lp389
g143
ag144
aa(lp390
g146
ag147
aa(lp391
g190
ag191
aa(lp392
g183
ag184
aaaaa(lp393
(lp394
(lp395
F-25.9
aF-27.0
aaa(lp396
(lp397
F-37.3
aF-30.0
aaa(lp398
(lp399
F-31.4
aF0.85
aF-28.5
aF0.72
aa(lp400
F7.0
aF0.85
aF-28.5
aF0.72
aa(lp401
F-31.4
aF1.45
aF-28.5
aF0.72
aa(lp402
F7.0
aF1.45
aF-28.5
aF0.72
aa(lp403
F-31.4
aF0.85
aF16.3
aF0.72
aa(lp404
F7.0
aF0.85
aF16.3
aF0.72
aa(lp405
F-31.4
aF1.45
aF16.3
aF0.72
aa(lp406
F7.0
aF1.45
aF16.3
aF0.72
aa(lp407
F-31.4
aF0.85
aF-28.5
aF1.38
aa(lp408
F7.0
aF0.85
aF-28.5
aF1.38
aa(lp409
F-31.4
aF1.45
aF-28.5
aF1.38
aa(lp410
F7.0
aF1.45
aF-28.5
aF1.38
aa(lp411
F-31.4
aF0.85
aF16.3
aF1.38
aa(lp412
F7.0
aF0.85
aF16.3
aF1.38
aa(lp413
F-31.4
aF1.45
aF16.3
aF1.38
aa(lp414
F7.0
aF1.45
aF16.3
aF1.38
aaa(lp415
(lp416
F-38.5
aF0.46
aa(lp417
F12.9
aF0.46
aa(lp418
F-38.5
aF1.56
aa(lp419
F12.9
aF1.56
aaa(lp420
(lp421
F-27.8
aF0.89
aF-19.1
aa(lp422
F8.7
aF0.89
aF-19.1
aa(lp423
F-27.8
aF1.14
aF-19.1
aa(lp424
F8.7
aF1.14
aF-19.1
aa(lp425
F-27.8
aF0.89
aF4.7
aa(lp426
F8.7
aF0.89
aF4.7
aa(lp427
F-27.8
aF1.14
aF4.7
aa(lp428
F8.7
aF1.14
aF4.7
aaa(lp429
(lp430
F-11.2
aF-3.1
aF1.24
aa(lp431
F1.0
aF-3.1
aF1.24
aaa(lp432
(lp433
F-5.2
aF0.69
aaa(lp434
(lp435
F1.7
aaa(lp436
(lp437
F-4.9
aF-5.1
aF0.6
aF0.6
aa(lp438
F4.9
aF-5.1
aF0.6
aF0.6
aa(lp439
F-4.9
aF5.1
aF0.6
aF0.6
aa(lp440
F4.9
aF5.1
aF0.6
aF0.6
aa(lp441
F-4.9
aF-5.1
aF1.68
aF0.6
aa(lp442
F4.9
aF-5.1
aF1.68
aF0.6
aa(lp443
F-4.9
aF5.1
aF1.68
aF0.6
aa(lp444
F4.9
aF5.1
aF1.68
aF0.6
aa(lp445
F-4.9
aF-5.1
aF0.6
aF1.66
aa(lp446
F4.9
aF-5.1
aF0.6
aF1.66
aa(lp447
F-4.9
aF5.1
aF0.6
aF1.66
aa(lp448
F4.9
aF5.1
aF0.6
aF1.66
aa(lp449
F-4.9
aF-5.1
aF1.68
aF1.66
aa(lp450
F4.9
aF-5.1
aF1.68
aF1.66
aa(lp451
F-4.9
aF5.1
aF1.68
aF1.66
aa(lp452
F4.9
aF5.1
aF1.68
aF1.66
aaa(lp453
(lp454
F1.26
aaa(lp455
(lp456
F-10.9
aF0.73
aF-3.0
aF0.81
aF1.25
aa(lp457
F-10.9
aF0.73
aF3.5
aF0.81
aF1.25
aaa(lp458
(lp459
F-10.6
aF0.8
aF-5.3
aF0.66
aF0.72
aa(lp460
F3.4
aF0.8
aF-5.3
aF0.66
aF0.72
aa(lp461
F-10.6
aF1.12
aF-5.3
aF0.66
aF0.72
aa(lp462
F3.4
aF1.12
aF-5.3
aF0.66
aF0.72
aa(lp463
F-10.6
aF0.8
aF1.2
aF0.66
aF0.72
aa(lp464
F3.4
aF0.8
aF1.2
aF0.66
aF0.72
aa(lp465
F-10.6
aF1.12
aF1.2
aF0.66
aF0.72
aa(lp466
F3.4
aF1.12
aF1.2
aF0.66
aF0.72
aaa(lp467
(lp468
F6.6
aF0.75
aF0.5
aa(lp469
F6.6
aF1.19
aF0.5
aa(lp470
F6.6
aF0.75
aF1.12
aa(lp471
F6.6
aF1.19
aF1.12
aaa(lp472
(lp473
F-9.8
aF0.8
aF-15.4
aF1.05
aaa(lp474
(lp475
F-24.2
aF0.7
aF-14.5
aF0.72
aF3.52
aa(lp476
F6.1
aF0.7
aF-14.5
aF0.72
aF3.52
aa(lp477
F-24.2
aF1.24
aF-14.5
aF0.72
aF3.52
aa(lp478
F6.1
aF1.24
aF-14.5
aF0.72
aF3.52
aa(lp479
F-24.2
aF0.7
aF-14.5
aF1.28
aF3.52
aa(lp480
F6.1
aF0.7
aF-14.5
aF1.28
aF3.52
aa(lp481
F-24.2
aF1.24
aF-14.5
aF1.28
aF3.52
aa(lp482
F6.1
aF1.24
aF-14.5
aF1.28
aF3.52
aaa(lp483
(lp484
F-17.8
aF0.81
aF0.77
aa(lp485
F-17.8
aF0.81
aF1.31
aaa(lp486
(lp487
F1.3
aF1.6
aF0.87
aF0.8
aa(lp488
F1.3
aF1.6
aF1.45
aF0.8
aaa(lp489
(lp490
F-4.3
aF1.14
aF-4.4
aF0.89
aF0.53
aF0.46
aa(lp491
F-4.3
aF1.14
aF-4.4
aF1.04
aF0.53
aF0.46
aaa(lp492
(lp493
F0.67
aaa(lp494
(lp495
F-30.02
aF0.62
aF0.49
aaa(lp496
(lp497
F-4.4
aF0.95
aF20.6
aF0.97
aaa(lp498
(lp499
F0.6
aaa(lp500
(lp501
F1.97
aaa(lp502
(lp503
F1.5
aF1.4
aaa(lp504
(lp505
F4.45
aaa(lp506
(lp507
F1.1
aaa(lp508
(lp509
F0.4
aaa(lp510
(lp511
F-0.3
aI5
aF1.15
aF1.23
aaa(lp512
(lp513
F2.8
aF9.6
aF0.984
aF1.042
aaa(lp514
(lp515
F-4.0
aF-5.8
aF0.92
aF1.13
aF1.47
aaa(lp516
(lp517
F-8.1
aF2.2
aF0.97
aF0.97
aF1.59
aaa(lp518
(lp519
F6.0
aF1.16
aF1.29
aaa(lp520
(lp521
F10.0
aF-0.6
aF1.15
aF1.14
aaa(lp522
(lp523
F6.8
aaa(lp524
(lp525
F3.5
aF0.55
aF-7.1
aF17.0
aF0.69
aaa(lp526
(lp527
F-9.1
aF3.1
aaa(lp528
(lp529
F-7.6
aF4.3
aaa(lp530
(lp531
F2.0
aF2.5
aF0.5
aaa(lp532
(lp533
F0.86
aF1.24
aaa(lp534
(lp535
F0.84
aaa(lp536
(lp537
F-26.5
aF0.64
aaa(lp538
(lp539
F-25.9
aF0.6
aa(lp540
F17.7
aF0.6
aaa(lp541
(lp542
F3.9
aF0.88
aaa(lp543
(lp544
I5
aI3
aF1.11
aF0.86
aF0.5
aF0.53
aaa(lp545
(lp546
I1
aI-6
aF1.22
aF1.0
aF0.89
aF1.13
aaa(lp547
(lp548
I6
aI-8
aF1.33
aF1.0
aF0.5
aF0.87
aaa(lp549
(lp550
I-28
aI-27
aF1.11
aF0.71
aF1.13
aF2.27
aaa(lp551
(lp552
I14
aI-21
aF2.0
aF1.0
aF0.39
aF1.2
aaa(lp553
(lp554
I-13
aI-13
aF1.33
aF0.71
aF0.95
aF5.13
aaa(lp555
(lp556
F3.0
aF3.48
aF1.01
aF0.89
aaa(lp557
(lp558
F-1.11
aF5.14
aF0.6
aF1.48
aaa(lp559
(lp560
F-1.88
aF2.69
aF0.6
aF1.35
aaaa(lp561
(lp562
(lp563
(lp564
g142
a(lp565
F-25.9
aaa(lp566
g145
a(lp567
F-27.0
aaaa(lp568
(lp569
g150
a(lp570
F-37.3
aaa(lp571
g151
a(lp572
F-30.0
aaaa(lp573
(lp574
g154
a(lp575
F-31.4
aF7.0
aaa(lp576
g155
a(lp577
F0.85
aF1.45
aaa(lp578
g158
a(lp579
F-28.5
aF16.3
aaa(lp580
g159
a(lp581
F0.72
aF1.38
aaaa(lp582
(lp583
g164
a(lp584
F-38.5
aF12.9
aaa(lp585
g165
a(lp586
F0.46
aF1.56
aaaa(lp587
(lp588
g168
a(lp589
F-27.8
aF8.7
aaa(lp590
g169
a(lp591
F0.89
aF1.14
aaa(lp592
g170
a(lp593
F-19.1
aF4.7
aaaa(lp594
(lp595
g173
a(lp596
F-11.2
aF1.0
aaa(lp597
g174
a(lp598
F-3.1
aaa(lp599
g175
a(lp600
F1.24
aaaaa(lp601
(lp602
(lp603
g178
a(lp604
F-5.2
aaa(lp605
g179
a(lp606
F0.69
aaaa(lp607
(lp608
g182
a(lp609
F1.7
aaaa(lp610
(lp611
g187
a(lp612
F-4.9
aF4.9
aaa(lp613
g188
a(lp614
F-5.1
aF5.1
aaa(lp615
g189
a(lp616
F0.6
aF1.68
aaa(lp617
g192
a(lp618
F0.6
aF1.66
aaaa(lp619
(lp620
g195
a(lp621
F1.26
aaaaa(lp622
(lp623
(lp624
g198
a(lp625
F-10.9
aaa(lp626
g199
a(lp627
F0.73
aaa(lp628
g200
a(lp629
F-3.0
aF3.5
aaa(lp630
g201
a(lp631
F0.81
aaa(lp632
g202
a(lp633
F1.25
aaaa(lp634
(lp635
g205
a(lp636
F-10.6
aF3.4
aaa(lp637
g206
a(lp638
F0.8
aF1.12
aaa(lp639
g207
a(lp640
F-5.3
aF1.2
aaa(lp641
g208
a(lp642
F0.66
aaa(lp643
g209
a(lp644
F0.72
aaaa(lp645
(lp646
g212
a(lp647
F6.6
aaa(lp648
g213
a(lp649
F0.75
aF1.19
aaa(lp650
g214
a(lp651
F0.5
aF1.12
aaaa(lp652
(lp653
g217
a(lp654
F-9.8
aaa(lp655
g218
a(lp656
F0.8
aaa(lp657
g219
a(lp658
F-15.4
aaa(lp659
g220
a(lp660
F1.05
aaaa(lp661
(lp662
g223
a(lp663
F-24.2
aF6.1
aaa(lp664
g224
a(lp665
F0.7
aF1.24
aaa(lp666
g225
a(lp667
F-14.5
aaa(lp668
g226
a(lp669
F0.72
aF1.28
aaa(lp670
g227
a(lp671
F3.52
aaaa(lp672
(lp673
g230
a(lp674
F-17.8
aaa(lp675
g231
a(lp676
F0.81
aaa(lp677
g232
a(lp678
F0.77
aF1.31
aaaaa(lp679
(lp680
(lp681
g235
a(lp682
F1.3
aaa(lp683
g236
a(lp684
F1.6
aaa(lp685
g237
a(lp686
F0.87
aF1.45
aaa(lp687
g240
a(lp688
F0.8
aaaa(lp689
(lp690
g235
a(lp691
F-4.3
aaa(lp692
g245
a(lp693
F1.14
aaa(lp694
g236
a(lp695
F-4.4
aaa(lp696
g246
a(lp697
F0.89
aF1.04
aaa(lp698
g247
a(lp699
F0.53
aaa(lp700
g248
a(lp701
F0.46
aaaaa(lp702
(lp703
(lp704
g251
a(lp705
F0.67
aaaa(lp706
(lp707
g254
a(lp708
F-30.02
aaa(lp709
g255
a(lp710
F0.62
aaa(lp711
g256
a(lp712
F0.49
aaaa(lp713
(lp714
g259
a(lp715
F-4.4
aaa(lp716
g260
a(lp717
F0.95
aaa(lp718
g261
a(lp719
F20.6
aaa(lp720
g262
a(lp721
F0.97
aaaaa(lp722
(lp723
(lp724
g265
a(lp725
F0.6
aaaaa(lp726
(lp727
(lp728
g268
a(lp729
F1.97
aaaa(lp730
(lp731
g268
a(lp732
F1.5
aaa(lp733
g271
a(lp734
F1.4
aaaa(lp735
(lp736
g268
a(lp737
F4.45
aaaa(lp738
(lp739
g271
a(lp740
F1.1
aaaaa(lp741
(lp742
(lp743
g265
a(lp744
F0.4
aaaaa(lp745
(lp746
(lp747
g280
a(lp748
F-0.3
aaa(lp749
g281
a(lp750
I5
aaa(lp751
g282
a(lp752
F1.15
aaa(lp753
g283
a(lp754
F1.23
aaaa(lp755
(lp756
g280
a(lp757
F2.8
aaa(lp758
g281
a(lp759
F9.6
aaa(lp760
g282
a(lp761
F0.984
aaa(lp762
g283
a(lp763
F1.042
aaaa(lp764
(lp765
g280
a(lp766
F-4.0
aaa(lp767
g281
a(lp768
F-5.8
aaa(lp769
g282
a(lp770
F0.92
aaa(lp771
g283
a(lp772
F1.13
aaa(lp773
g288
a(lp774
F1.47
aaaa(lp775
(lp776
g280
a(lp777
F-8.1
aaa(lp778
g281
a(lp779
F2.2
aaa(lp780
g282
a(lp781
F0.97
aaa(lp782
g283
a(lp783
F0.97
aaa(lp784
g293
a(lp785
F1.59
aaaa(lp786
(lp787
g280
a(lp788
F6.0
aaa(lp789
g282
a(lp790
F1.16
aaa(lp791
g296
a(lp792
F1.29
aaaa(lp793
(lp794
g280
a(lp795
F10.0
aaa(lp796
g281
a(lp797
F-0.6
aaa(lp798
g282
a(lp799
F1.15
aaa(lp800
g283
a(lp801
F1.14
aaaaa(lp802
(lp803
(lp804
g301
a(lp805
F6.8
aaaa(lp806
(lp807
g307
a(lp808
F3.5
aaa(lp809
g308
a(lp810
F0.55
aaa(lp811
g280
a(lp812
F-7.1
aaa(lp813
g281
a(lp814
F17.0
aaa(lp815
g283
a(lp816
F0.69
aaaa(lp817
(lp818
g280
a(lp819
F-9.1
aaa(lp820
g281
a(lp821
F3.1
aaaa(lp822
(lp823
g280
a(lp824
F-7.6
aaa(lp825
g281
a(lp826
F4.3
aaaaa(lp827
(lp828
(lp829
g315
a(lp830
F2.0
aaa(lp831
g319
a(lp832
F2.5
aaa(lp833
g323
a(lp834
F0.5
aaaaa(lp835
(lp836
(lp837
g326
a(lp838
F0.86
aaa(lp839
g327
a(lp840
F1.24
aaaa(lp841
(lp842
g327
a(lp843
F0.84
aaaaa(lp844
(lp845
(lp846
g332
a(lp847
F-26.5
aaa(lp848
g335
a(lp849
F0.64
aaaa(lp850
(lp851
g340
a(lp852
F-25.9
aF17.7
aaa(lp853
g341
a(lp854
F0.6
aaaa(lp855
(lp856
g344
a(lp857
F3.9
aaa(lp858
g345
a(lp859
F0.88
aaaaa(lp860
(lp861
(lp862
g350
a(lp863
I5
aaa(lp864
g351
a(lp865
I3
aaa(lp866
g352
a(lp867
F1.11
aaa(lp868
g323
a(lp869
F0.86
aaa(lp870
g353
a(lp871
F0.5
aaa(lp872
g354
a(lp873
F0.53
aaaa(lp874
(lp875
g350
a(lp876
I1
aaa(lp877
g351
a(lp878
I-6
aaa(lp879
g352
a(lp880
F1.22
aaa(lp881
g323
a(lp882
F1.0
aaa(lp883
g357
a(lp884
F0.89
aaa(lp885
g358
a(lp886
F1.13
aaaa(lp887
(lp888
g350
a(lp889
I6
aaa(lp890
g351
a(lp891
I-8
aaa(lp892
g352
a(lp893
F1.33
aaa(lp894
g323
a(lp895
F1.0
aaa(lp896
g361
a(lp897
F0.5
aaa(lp898
g362
a(lp899
F0.87
aaaa(lp900
(lp901
g350
a(lp902
I-28
aaa(lp903
g351
a(lp904
I-27
aaa(lp905
g352
a(lp906
F1.11
aaa(lp907
g323
a(lp908
F0.71
aaa(lp909
g365
a(lp910
F1.13
aaa(lp911
g366
a(lp912
F2.27
aaaa(lp913
(lp914
g350
a(lp915
I14
aaa(lp916
g351
a(lp917
I-21
aaa(lp918
g352
a(lp919
F2.0
aaa(lp920
g323
a(lp921
F1.0
aaa(lp922
g369
a(lp923
F0.39
aaa(lp924
g370
a(lp925
F1.2
aaaa(lp926
(lp927
g350
a(lp928
I-13
aaa(lp929
g351
a(lp930
I-13
aaa(lp931
g352
a(lp932
F1.33
aaa(lp933
g323
a(lp934
F0.71
aaa(lp935
g373
a(lp936
F0.95
aaa(lp937
g374
a(lp938
F5.13
aaaaa(lp939
(lp940
(lp941
g377
a(lp942
F3.0
aaa(lp943
g378
a(lp944
F3.48
aaa(lp945
g379
a(lp946
F1.01
aaa(lp947
g380
a(lp948
F0.89
aaaa(lp949
(lp950
g383
a(lp951
F-1.11
aaa(lp952
g384
a(lp953
F5.14
aaa(lp954
g385
a(lp955
F0.6
aaa(lp956
g386
a(lp957
F1.48
aaaa(lp958
(lp959
g389
a(lp960
F-1.88
aaa(lp961
g390
a(lp962
F2.69
aaa(lp963
g391
a(lp964
F0.6
aaa(lp965
g392
a(lp966
F1.35
aaaaaa.